target datalayout = "e-m:e-p270:32:32-p271:32:32-p272:64:64-i64:64-i128:128-f80:128-n8:16:32:64-S128"
target triple = "x86_64-pc-linux-gnu"

@XLOGbuffers = dso_local global i32 -1, align 4
@wal_segment_size = dso_local global i32 16777216, align 4
@.str.29 = private unnamed_addr constant [3 x i8] c"%d\00", align 1
@.str.30 = private unnamed_addr constant [12 x i8] c"wal_buffers\00", align 1
@NBuffers = external global i32, align 4

; Function Attrs: nounwind uwtable
define internal i32 @XLOGChooseNumBuffers() #0 {
  %1 = alloca i32, align 4
  call void @llvm.lifetime.start.p0(i64 4, ptr %1) #16
  %2 = load i32, ptr @NBuffers, align 4
  %3 = sdiv i32 %2, 32
  store i32 %3, ptr %1, align 4
  %4 = load i32, ptr %1, align 4
  %5 = load i32, ptr @wal_segment_size, align 4
  %6 = sdiv i32 %5, 8192
  %7 = icmp sgt i32 %4, %6
  br i1 %7, label %8, label %11

8:                                                ; preds = %0
  %9 = load i32, ptr @wal_segment_size, align 4
  %10 = sdiv i32 %9, 8192
  store i32 %10, ptr %1, align 4
  br label %11

11:                                               ; preds = %8, %0
  %12 = load i32, ptr %1, align 4
  %13 = icmp slt i32 %12, 8
  br i1 %13, label %14, label %15

14:                                               ; preds = %11
  store i32 8, ptr %1, align 4
  br label %15

15:                                               ; preds = %14, %11
  %16 = load i32, ptr %1, align 4
  call void @llvm.lifetime.end.p0(i64 4, ptr %1) #16
  ret i32 %16
}

; Function Attrs: nounwind uwtable
define dso_local i64 @XLOGShmemSize() #0 {
  %1 = alloca i64, align 8
  %2 = alloca [32 x i8], align 16
  call void @llvm.lifetime.start.p0(i64 8, ptr %1) #16
  %3 = load i32, ptr @XLOGbuffers, align 4
  %4 = icmp eq i32 %3, -1
  br i1 %4, label %5, label %15

5:                                                ; preds = %0
  call void @llvm.lifetime.start.p0(i64 32, ptr %2) #16
  %6 = getelementptr inbounds [32 x i8], ptr %2, i64 0, i64 0
  %7 = call i32 @XLOGChooseNumBuffers()
  %8 = call i32 (ptr, i64, ptr, ...) @pg_snprintf(ptr noundef %6, i64 noundef 32, ptr noundef @.str.29, i32 noundef %7)
  %9 = getelementptr inbounds [32 x i8], ptr %2, i64 0, i64 0
  call void @SetConfigOption(ptr noundef @.str.30, ptr noundef %9, i32 noundef 1, i32 noundef 1)
  %10 = load i32, ptr @XLOGbuffers, align 4
  %11 = icmp eq i32 %10, -1
  br i1 %11, label %12, label %14

12:                                               ; preds = %5
  %13 = getelementptr inbounds [32 x i8], ptr %2, i64 0, i64 0
  call void @SetConfigOption(ptr noundef @.str.30, ptr noundef %13, i32 noundef 1, i32 noundef 10)
  br label %14

14:                                               ; preds = %12, %5
  call void @llvm.lifetime.end.p0(i64 32, ptr %2) #16
  br label %15

15:                                               ; preds = %14, %0
  store i64 456, ptr %1, align 8
  %16 = load i64, ptr %1, align 8
  %17 = call i64 @mul_size(i64 noundef 128, i64 noundef 9)
  %18 = call i64 @add_size(i64 noundef %16, i64 noundef %17)
  store i64 %18, ptr %1, align 8
  %19 = load i64, ptr %1, align 8
  %20 = load i32, ptr @XLOGbuffers, align 4
  %21 = sext i32 %20 to i64
  %22 = call i64 @mul_size(i64 noundef 8, i64 noundef %21)
  %23 = call i64 @add_size(i64 noundef %19, i64 noundef %22)
  store i64 %23, ptr %1, align 8
  %24 = load i64, ptr %1, align 8
  %25 = call i64 @add_size(i64 noundef %24, i64 noundef 8192)
  store i64 %25, ptr %1, align 8
  %26 = load i64, ptr %1, align 8
  %27 = load i32, ptr @XLOGbuffers, align 4
  %28 = sext i32 %27 to i64
  %29 = call i64 @mul_size(i64 noundef 8192, i64 noundef %28)
  %30 = call i64 @add_size(i64 noundef %26, i64 noundef %29)
  store i64 %30, ptr %1, align 8
  %31 = load i64, ptr %1, align 8
  call void @llvm.lifetime.end.p0(i64 8, ptr %1) #16
  ret i64 %31
}