; Function Attrs: nounwind uwtable
define dso_local i64 @XLOGShmemSize() local_unnamed_addr #0 {
  %1 = alloca [32 x i8], align 16
  %2 = load i32, ptr @XLOGbuffers, align 4
  %3 = icmp eq i32 %2, -1
  br i1 %3, label %4, label %14

4:                                                ; preds = %0
  call void @llvm.lifetime.start.p0(i64 32, ptr nonnull %1) #26
  %5 = load i32, ptr @NBuffers, align 4
  %6 = sdiv i32 %5, 32
  %7 = load i32, ptr @wal_segment_size, align 4
  %8 = sdiv i32 %7, 8192
  %spec.select.i = tail call i32 @llvm.smin.i32(i32 %6, i32 %8)
  %spec.store.select.i = tail call range(i32 8, 262144) i32 @llvm.smax.i32(i32 %spec.select.i, i32 8)
  %9 = call i32 (ptr, i64, ptr, ...) @pg_snprintf(ptr noundef nonnull %1, i64 noundef 32, ptr noundef nonnull @.str.29, i32 noundef %spec.store.select.i) #26
  call void @SetConfigOption(ptr noundef nonnull @.str.30, ptr noundef nonnull %1, i32 noundef 1, i32 noundef 1) #26
  %10 = load i32, ptr @XLOGbuffers, align 4
  %11 = icmp eq i32 %10, -1
  br i1 %11, label %12, label %13

12:                                               ; preds = %4
  call void @SetConfigOption(ptr noundef nonnull @.str.30, ptr noundef nonnull %1, i32 noundef 1, i32 noundef 10) #26
  br label %13

13:                                               ; preds = %12, %4
  call void @llvm.lifetime.end.p0(i64 32, ptr nonnull %1) #26
  br label %14

14:                                               ; preds = %13, %0
  %15 = call i64 @mul_size(i64 noundef 128, i64 noundef 9) #26
  %16 = call i64 @add_size(i64 noundef 456, i64 noundef %15) #26
  %17 = load i32, ptr @XLOGbuffers, align 4
  %18 = sext i32 %17 to i64
  %19 = call i64 @mul_size(i64 noundef 8, i64 noundef %18) #26
  %20 = call i64 @add_size(i64 noundef %16, i64 noundef %19) #26
  %21 = call i64 @add_size(i64 noundef %20, i64 noundef 8192) #26
  %22 = load i32, ptr @XLOGbuffers, align 4
  %23 = sext i32 %22 to i64
  %24 = call i64 @mul_size(i64 noundef 8192, i64 noundef %23) #26
  %25 = call i64 @add_size(i64 noundef %21, i64 noundef %24) #26
  ret i64 %25
}